target datalayout = "e-m:e-p270:32:32-p271:32:32-p272:64:64-i64:64-i128:128-f80:128-n8:16:32:64-S128"
target triple = "x86_64-pc-linux-gnu"

%struct.JNINativeInterface_ = type { ptr, ptr, ptr, ptr, ptr, ptr, ptr, ptr, ptr, ptr, ptr, ptr, ptr, ptr, ptr, ptr, ptr, ptr, ptr, ptr, ptr, ptr, ptr, ptr, ptr, ptr, ptr, ptr, ptr, ptr, ptr, ptr, ptr, ptr, ptr, ptr, ptr, ptr, ptr, ptr, ptr, ptr, ptr, ptr, ptr, ptr, ptr, ptr, ptr, ptr, ptr, ptr, ptr, ptr, ptr, ptr, ptr, ptr, ptr, ptr, ptr, ptr, ptr, ptr, ptr, ptr, ptr, ptr, ptr, ptr, ptr, ptr, ptr, ptr, ptr, ptr, ptr, ptr, ptr, ptr, ptr, ptr, ptr, ptr, ptr, ptr, ptr, ptr, ptr, ptr, ptr, ptr, ptr, ptr, ptr, ptr, ptr, ptr, ptr, ptr, ptr, ptr, ptr, ptr, ptr, ptr, ptr, ptr, ptr, ptr, ptr, ptr, ptr, ptr, ptr, ptr, ptr, ptr, ptr, ptr, ptr, ptr, ptr, ptr, ptr, ptr, ptr, ptr, ptr, ptr, ptr, ptr, ptr, ptr, ptr, ptr, ptr, ptr, ptr, ptr, ptr, ptr, ptr, ptr, ptr, ptr, ptr, ptr, ptr, ptr, ptr, ptr, ptr, ptr, ptr, ptr, ptr, ptr, ptr, ptr, ptr, ptr, ptr, ptr, ptr, ptr, ptr, ptr, ptr, ptr, ptr, ptr, ptr, ptr, ptr, ptr, ptr, ptr, ptr, ptr, ptr, ptr, ptr, ptr, ptr, ptr, ptr, ptr, ptr, ptr, ptr, ptr, ptr, ptr, ptr, ptr, ptr, ptr, ptr, ptr, ptr, ptr, ptr, ptr, ptr, ptr, ptr, ptr, ptr, ptr, ptr, ptr, ptr, ptr, ptr, ptr, ptr, ptr, ptr, ptr, ptr, ptr, ptr, ptr, ptr, ptr, ptr, ptr, ptr, ptr, ptr, ptr, ptr, ptr, ptr }

@.str.7 = private unnamed_addr constant [7 x i8] c"%s: %s\00", align 1
@.str.8 = private unnamed_addr constant [14 x i8] c"unknown error\00", align 1
@.str.9 = private unnamed_addr constant [30 x i8] c"java/net/UnknownHostException\00", align 1
@.str.10 = private unnamed_addr constant [22 x i8] c"(Ljava/lang/String;)V\00", align 1

; Function Attrs: nounwind uwtable
define hidden void @NET_ThrowUnknownHostExceptionWithGaiError(ptr noundef %0, ptr noundef %1, i32 noundef %2) #0 {
  %4 = alloca ptr, align 8
  %5 = alloca ptr, align 8
  %6 = alloca i32, align 4
  %7 = alloca i32, align 4
  %8 = alloca ptr, align 8
  %9 = alloca ptr, align 8
  %10 = alloca ptr, align 8
  %11 = alloca ptr, align 8
  %12 = alloca ptr, align 8
  store ptr %0, ptr %4, align 8
  store ptr %1, ptr %5, align 8
  store i32 %2, ptr %6, align 4
  store ptr @.str.7, ptr %9, align 8
  %13 = load i32, ptr %6, align 4
  %14 = call ptr @gai_strerror(i32 noundef %13) #9
  store ptr %14, ptr %10, align 8
  %15 = load ptr, ptr %10, align 8
  %16 = icmp eq ptr %15, null
  br i1 %16, label %17, label %18

17:                                               ; preds = %3
  store ptr @.str.8, ptr %10, align 8
  br label %18

18:                                               ; preds = %17, %3
  %19 = load ptr, ptr %9, align 8
  %20 = call i64 @strlen(ptr noundef %19) #10
  %21 = load ptr, ptr %5, align 8
  %22 = call i64 @strlen(ptr noundef %21) #10
  %23 = add i64 %20, %22
  %24 = load ptr, ptr %10, align 8
  %25 = call i64 @strlen(ptr noundef %24) #10
  %26 = add i64 %23, %25
  %27 = add i64 %26, 2
  %28 = trunc i64 %27 to i32
  store i32 %28, ptr %7, align 4
  %29 = load i32, ptr %7, align 4
  %30 = sext i32 %29 to i64
  %31 = call noalias ptr @malloc(i64 noundef %30) #11
  store ptr %31, ptr %8, align 8
  %32 = load ptr, ptr %8, align 8
  %33 = icmp ne ptr %32, null
  br i1 %33, label %34, label %64

34:                                               ; preds = %18
  %35 = load ptr, ptr %8, align 8
  %36 = load i32, ptr %7, align 4
  %37 = sext i32 %36 to i64
  %38 = load ptr, ptr %9, align 8
  %39 = load ptr, ptr %5, align 8
  %40 = load ptr, ptr %10, align 8
  %41 = call i32 (ptr, i64, ptr, ...) @snprintf(ptr noundef %35, i64 noundef %37, ptr noundef %38, ptr noundef %39, ptr noundef %40) #9
  %42 = load ptr, ptr %4, align 8
  %43 = load ptr, ptr %8, align 8
  %44 = call ptr @JNU_NewStringPlatform(ptr noundef %42, ptr noundef %43)
  store ptr %44, ptr %11, align 8
  %45 = load ptr, ptr %11, align 8
  %46 = icmp ne ptr %45, null
  br i1 %46, label %47, label %62

47:                                               ; preds = %34
  %48 = load ptr, ptr %4, align 8
  %49 = load ptr, ptr %11, align 8
  %50 = call ptr (ptr, ptr, ptr, ...) @JNU_NewObjectByName(ptr noundef %48, ptr noundef @.str.9, ptr noundef @.str.10, ptr noundef %49)
  store ptr %50, ptr %12, align 8
  %51 = load ptr, ptr %12, align 8
  %52 = icmp ne ptr %51, null
  br i1 %52, label %53, label %61

53:                                               ; preds = %47
  %54 = load ptr, ptr %4, align 8
  %55 = load ptr, ptr %54, align 8
  %56 = getelementptr inbounds %struct.JNINativeInterface_, ptr %55, i32 0, i32 13
  %57 = load ptr, ptr %56, align 8
  %58 = load ptr, ptr %4, align 8
  %59 = load ptr, ptr %12, align 8
  %60 = call i32 %57(ptr noundef %58, ptr noundef %59)
  br label %61

61:                                               ; preds = %53, %47
  br label %62

62:                                               ; preds = %61, %34
  %63 = load ptr, ptr %8, align 8
  call void @free(ptr noundef %63) #9
  br label %64

64:                                               ; preds = %62, %18
  ret void
}