; Function Attrs: nounwind uwtable
define hidden void @NET_ThrowUnknownHostExceptionWithGaiError(ptr noundef %0, ptr noundef %1, i32 noundef %2) local_unnamed_addr #0 {
  %4 = tail call ptr @gai_strerror(i32 noundef %2) #13
  %5 = icmp eq ptr %4, null
  %spec.store.select = select i1 %5, ptr @.str.8, ptr %4
  %6 = tail call i64 @strlen(ptr noundef nonnull dereferenceable(1) %1) #15
  %7 = add i64 %6, 6
  %8 = tail call i64 @strlen(ptr noundef nonnull dereferenceable(1) %spec.store.select) #15
  %9 = add i64 %7, %8
  %10 = shl i64 %9, 32
  %sext = add i64 %10, 8589934592
  %11 = ashr exact i64 %sext, 32
  %12 = tail call noalias ptr @malloc(i64 noundef %11) #16
  %.not = icmp eq ptr %12, null
  br i1 %.not, label %24, label %13

13:                                               ; preds = %3
  %14 = tail call i32 (ptr, i64, ptr, ...) @snprintf(ptr noundef nonnull %12, i64 noundef %11, ptr noundef nonnull @.str.7, ptr noundef %1, ptr noundef nonnull %spec.store.select) #13
  %15 = tail call ptr @JNU_NewStringPlatform(ptr noundef %0, ptr noundef nonnull %12) #13
  %.not23 = icmp eq ptr %15, null
  br i1 %.not23, label %23, label %16

16:                                               ; preds = %13
  %17 = tail call ptr (ptr, ptr, ptr, ...) @JNU_NewObjectByName(ptr noundef %0, ptr noundef nonnull @.str.9, ptr noundef nonnull @.str.10, ptr noundef nonnull %15) #13
  %.not24 = icmp eq ptr %17, null
  br i1 %.not24, label %23, label %18

18:                                               ; preds = %16
  %19 = load ptr, ptr %0, align 8
  %20 = getelementptr inbounds i8, ptr %19, i64 104
  %21 = load ptr, ptr %20, align 8
  %22 = tail call i32 %21(ptr noundef nonnull %0, ptr noundef nonnull %17) #13
  br label %23

23:                                               ; preds = %16, %18, %13
  tail call void @free(ptr noundef nonnull %12) #13
  br label %24

24:                                               ; preds = %23, %3
  ret void
}